target datalayout = "e-m:e-p270:32:32-p271:32:32-p272:64:64-i64:64-i128:128-f80:128-n8:16:32:64-S128"
target triple = "x86_64-pc-linux-gnu"

%struct._structmodulestate = type { ptr, ptr, ptr, ptr }
%struct.Py_complex = type { double, double }

@.str.57 = private unnamed_addr constant [35 x i8] c"required argument is not a complex\00", align 1

; Function Attrs: nounwind uwtable
define internal i32 @np_double_complex(ptr noundef %0, ptr noundef %1, ptr noundef %2, ptr noundef %3) #0 {
  %5 = alloca i32, align 4
  %6 = alloca ptr, align 8
  %7 = alloca ptr, align 8
  %8 = alloca ptr, align 8
  %9 = alloca ptr, align 8
  %10 = alloca %struct.Py_complex, align 8
  %11 = alloca { double, double }, align 8
  %12 = alloca i32, align 4
  store ptr %0, ptr %6, align 8, !tbaa !8
  store ptr %1, ptr %7, align 8, !tbaa !43
  store ptr %2, ptr %8, align 8, !tbaa !3
  store ptr %3, ptr %9, align 8, !tbaa !49
  call void @llvm.lifetime.start.p0(i64 16, ptr %10) #8
  %13 = load ptr, ptr %8, align 8, !tbaa !3
  %14 = call { double, double } @PyComplex_AsCComplex(ptr noundef %13)
  %15 = getelementptr inbounds nuw { double, double }, ptr %10, i32 0, i32 0
  %16 = extractvalue { double, double } %14, 0
  store double %16, ptr %15, align 8
  %17 = getelementptr inbounds nuw { double, double }, ptr %10, i32 0, i32 1
  %18 = extractvalue { double, double } %14, 1
  store double %18, ptr %17, align 8
  call void @llvm.lifetime.start.p0(i64 16, ptr %11) #8
  %19 = getelementptr inbounds nuw %struct.Py_complex, ptr %10, i32 0, i32 0
  %20 = load double, ptr %19, align 8, !tbaa !101
  %21 = getelementptr inbounds nuw %struct.Py_complex, ptr %10, i32 0, i32 1
  %22 = load double, ptr %21, align 8, !tbaa !103
  %23 = getelementptr inbounds nuw { double, double }, ptr %11, i32 0, i32 0
  %24 = getelementptr inbounds nuw { double, double }, ptr %11, i32 0, i32 1
  store double %20, ptr %23, align 8
  store double %22, ptr %24, align 8
  %25 = getelementptr inbounds nuw %struct.Py_complex, ptr %10, i32 0, i32 0
  %26 = load double, ptr %25, align 8, !tbaa !101
  %27 = fcmp oeq double %26, -1.000000e+00
  br i1 %27, label %28, label %35

28:                                               ; preds = %4
  %29 = call ptr @PyErr_Occurred()
  %30 = icmp ne ptr %29, null
  br i1 %30, label %31, label %35

31:                                               ; preds = %28
  %32 = load ptr, ptr %6, align 8, !tbaa !8
  %33 = getelementptr inbounds nuw %struct._structmodulestate, ptr %32, i32 0, i32 3
  %34 = load ptr, ptr %33, align 8, !tbaa !15
  call void @PyErr_SetString(ptr noundef %34, ptr noundef @.str.57)
  store i32 -1, ptr %5, align 4
  store i32 1, ptr %12, align 4
  br label %37

35:                                               ; preds = %28, %4
  %36 = load ptr, ptr %7, align 8, !tbaa !43
  call void @llvm.memcpy.p0.p0.i64(ptr align 1 %36, ptr align 8 %11, i64 16, i1 false)
  store i32 0, ptr %5, align 4
  store i32 1, ptr %12, align 4
  br label %37

37:                                               ; preds = %35, %31
  call void @llvm.lifetime.end.p0(i64 16, ptr %11) #8
  call void @llvm.lifetime.end.p0(i64 16, ptr %10) #8
  %38 = load i32, ptr %5, align 4
  ret i32 %38
}